target datalayout = "e-m:e-p270:32:32-p271:32:32-p272:64:64-i64:64-i128:128-f80:128-n8:16:32:64-S128"
target triple = "x86_64-pc-linux-gnu"

%"class.net::QuicDataWriter" = type { ptr, i64, i64 }
%"class.logging::CheckOpResult" = type { ptr }
%"class.logging::LogMessage" = type <{ i32, [4 x i8], %"class.std::__cxx11::basic_ostringstream", i64, ptr, i32, [4 x i8] }>
%"class.std::__cxx11::basic_ostringstream" = type { %"class.std::basic_ostream.base", %"class.std::__cxx11::basic_stringbuf", %"class.std::basic_ios" }
%"class.std::basic_ostream.base" = type { ptr }
%"class.std::__cxx11::basic_stringbuf" = type { %"class.std::basic_streambuf", i32, %"class.std::__cxx11::basic_string" }
%"class.std::basic_streambuf" = type { ptr, ptr, ptr, ptr, ptr, ptr, ptr, %"class.std::locale" }
%"class.std::locale" = type { ptr }
%"class.std::__cxx11::basic_string" = type { %"struct.std::__cxx11::basic_string<char>::_Alloc_hider", i64, %union.anon }
%"struct.std::__cxx11::basic_string<char>::_Alloc_hider" = type { ptr }
%union.anon = type { i64, [8 x i8] }
%"class.std::basic_ios" = type { %"class.std::ios_base", ptr, i8, i8, ptr, ptr, ptr, ptr }
%"class.std::ios_base" = type { ptr, i64, i64, i32, i32, i32, ptr, %"struct.std::ios_base::_Words", [8 x %"struct.std::ios_base::_Words"], i32, ptr, %"class.std::locale" }
%"struct.std::ios_base::_Words" = type { ptr, i64 }

@.str = private unnamed_addr constant [131 x i8] c"generated/home/dtcxzyw/WorkSpace/Projects/compilers/llvm-opt-benchmark/bench/libquic/libquic/src/net/quic/core/quic_data_writer.cc\00", align 1

; Function Attrs: mustprogress uwtable
define noundef ptr @_ZN3net14QuicDataWriter10BeginWriteEm(ptr noundef nonnull align 8 dereferenceable(24) %0, i64 noundef %1) #1 align 2 personality ptr @__gxx_personality_v0 {
  %3 = alloca ptr, align 8
  %4 = alloca ptr, align 8
  %5 = alloca i64, align 8
  %6 = alloca %"class.logging::CheckOpResult", align 8
  %7 = alloca %"class.logging::LogMessage", align 8
  %8 = alloca ptr, align 8
  %9 = alloca i32, align 4
  store ptr %0, ptr %4, align 8, !tbaa !3
  store i64 %1, ptr %5, align 8, !tbaa !8
  %10 = load ptr, ptr %4, align 8
  %11 = getelementptr inbounds nuw %"class.net::QuicDataWriter", ptr %10, i32 0, i32 2
  %12 = load i64, ptr %11, align 8, !tbaa !15
  %13 = getelementptr inbounds nuw %"class.net::QuicDataWriter", ptr %10, i32 0, i32 1
  %14 = load i64, ptr %13, align 8, !tbaa !14
  %15 = icmp ugt i64 %12, %14
  br i1 %15, label %16, label %17

16:                                               ; preds = %2
  store ptr null, ptr %3, align 8
  br label %43

17:                                               ; preds = %2
  %18 = getelementptr inbounds nuw %"class.net::QuicDataWriter", ptr %10, i32 0, i32 1
  %19 = load i64, ptr %18, align 8, !tbaa !14
  %20 = getelementptr inbounds nuw %"class.net::QuicDataWriter", ptr %10, i32 0, i32 2
  %21 = load i64, ptr %20, align 8, !tbaa !15
  %22 = sub i64 %19, %21
  %23 = load i64, ptr %5, align 8, !tbaa !8
  %24 = icmp ult i64 %22, %23
  br i1 %24, label %25, label %26

25:                                               ; preds = %17
  store ptr null, ptr %3, align 8
  br label %43

26:                                               ; preds = %17
  call void @llvm.lifetime.start.p0(i64 8, ptr %6) #7
  call void @_ZN7logging13CheckOpResultC2EPNSt7__cxx1112basic_stringIcSt11char_traitsIcESaIcEEE(ptr noundef nonnull align 8 dereferenceable(8) %6, ptr noundef null)
  %27 = call noundef zeroext i1 @_ZNK7logging13CheckOpResultcvbEv(ptr noundef nonnull align 8 dereferenceable(8) %6)
  br i1 %27, label %28, label %29

28:                                               ; preds = %26
  br label %37

29:                                               ; preds = %26
  call void @llvm.lifetime.start.p0(i64 408, ptr %7) #7
  %30 = call noundef ptr @_ZN7logging13CheckOpResult7messageB5cxx11Ev(ptr noundef nonnull align 8 dereferenceable(8) %6)
  call void @_ZN7logging10LogMessageC1EPKciiPNSt7__cxx1112basic_stringIcSt11char_traitsIcESaIcEEE(ptr noundef nonnull align 8 dereferenceable(404) %7, ptr noundef @.str, i32 noundef 106, i32 noundef 0, ptr noundef %30)
  %31 = invoke noundef nonnull align 8 dereferenceable(8) ptr @_ZN7logging10LogMessage6streamEv(ptr noundef nonnull align 8 dereferenceable(404) %7)
          to label %32 unwind label %33

32:                                               ; preds = %29
  call void @_ZN7logging10LogMessageD1Ev(ptr noundef nonnull align 8 dereferenceable(404) %7) #7
  call void @llvm.lifetime.end.p0(i64 408, ptr %7) #7
  br label %37

33:                                               ; preds = %29
  %34 = landingpad { ptr, i32 }
          cleanup
  %35 = extractvalue { ptr, i32 } %34, 0
  store ptr %35, ptr %8, align 8
  %36 = extractvalue { ptr, i32 } %34, 1
  store i32 %36, ptr %9, align 4
  call void @_ZN7logging10LogMessageD1Ev(ptr noundef nonnull align 8 dereferenceable(404) %7) #7
  call void @llvm.lifetime.end.p0(i64 408, ptr %7) #7
  call void @llvm.lifetime.end.p0(i64 8, ptr %6) #7
  br label %45

37:                                               ; preds = %32, %28
  call void @llvm.lifetime.end.p0(i64 8, ptr %6) #7
  %38 = getelementptr inbounds nuw %"class.net::QuicDataWriter", ptr %10, i32 0, i32 0
  %39 = load ptr, ptr %38, align 8, !tbaa !12
  %40 = getelementptr inbounds nuw %"class.net::QuicDataWriter", ptr %10, i32 0, i32 2
  %41 = load i64, ptr %40, align 8, !tbaa !15
  %42 = getelementptr inbounds nuw i8, ptr %39, i64 %41
  store ptr %42, ptr %3, align 8
  br label %43

43:                                               ; preds = %37, %25, %16
  %44 = load ptr, ptr %3, align 8
  ret ptr %44

45:                                               ; preds = %33
  %46 = load ptr, ptr %8, align 8
  %47 = load i32, ptr %9, align 4
  %48 = insertvalue { ptr, i32 } poison, ptr %46, 0
  %49 = insertvalue { ptr, i32 } %48, i32 %47, 1
  resume { ptr, i32 } %49
}

; Function Attrs: mustprogress uwtable
define noundef zeroext i1 @_ZN3net14QuicDataWriter10WriteBytesEPKvm(ptr noundef nonnull align 8 dereferenceable(24) %0, ptr noundef %1, i64 noundef %2) #1 align 2 {
  %4 = alloca i1, align 1
  %5 = alloca ptr, align 8
  %6 = alloca ptr, align 8
  %7 = alloca i64, align 8
  %8 = alloca ptr, align 8
  %9 = alloca i32, align 4
  store ptr %0, ptr %5, align 8, !tbaa !3
  store ptr %1, ptr %6, align 8, !tbaa !17
  store i64 %2, ptr %7, align 8, !tbaa !8
  %10 = load ptr, ptr %5, align 8
  call void @llvm.lifetime.start.p0(i64 8, ptr %8) #7
  %11 = load i64, ptr %7, align 8, !tbaa !8
  %12 = call noundef ptr @_ZN3net14QuicDataWriter10BeginWriteEm(ptr noundef nonnull align 8 dereferenceable(24) %10, i64 noundef %11)
  store ptr %12, ptr %8, align 8, !tbaa !10
  %13 = load ptr, ptr %8, align 8, !tbaa !10
  %14 = icmp ne ptr %13, null
  br i1 %14, label %16, label %15

15:                                               ; preds = %3
  store i1 false, ptr %4, align 1
  store i32 1, ptr %9, align 4
  br label %24

16:                                               ; preds = %3
  %17 = load ptr, ptr %8, align 8, !tbaa !10
  %18 = load ptr, ptr %6, align 8, !tbaa !17
  %19 = load i64, ptr %7, align 8, !tbaa !8
  call void @llvm.memcpy.p0.p0.i64(ptr align 1 %17, ptr align 1 %18, i64 %19, i1 false)
  %20 = load i64, ptr %7, align 8, !tbaa !8
  %21 = getelementptr inbounds nuw %"class.net::QuicDataWriter", ptr %10, i32 0, i32 2
  %22 = load i64, ptr %21, align 8, !tbaa !15
  %23 = add i64 %22, %20
  store i64 %23, ptr %21, align 8, !tbaa !15
  store i1 true, ptr %4, align 1
  store i32 1, ptr %9, align 4
  br label %24

24:                                               ; preds = %16, %15
  call void @llvm.lifetime.end.p0(i64 8, ptr %8) #7
  %25 = load i1, ptr %4, align 1
  ret i1 %25
}

; Function Attrs: mustprogress nounwind uwtable
define linkonce_odr noundef nonnull align 8 dereferenceable(8) ptr @_ZN7logging10LogMessage6streamEv(ptr noundef nonnull align 8 dereferenceable(404) %0) #0 comdat align 2 {
  %2 = alloca ptr, align 8
  store ptr %0, ptr %2, align 8, !tbaa !30
  %3 = load ptr, ptr %2, align 8
  %4 = getelementptr inbounds nuw %"class.logging::LogMessage", ptr %3, i32 0, i32 2
  ret ptr %4
}

; Function Attrs: mustprogress nounwind uwtable
define linkonce_odr noundef ptr @_ZN7logging13CheckOpResult7messageB5cxx11Ev(ptr noundef nonnull align 8 dereferenceable(8) %0) #0 comdat align 2 {
  %2 = alloca ptr, align 8
  store ptr %0, ptr %2, align 8, !tbaa !24
  %3 = load ptr, ptr %2, align 8
  %4 = getelementptr inbounds nuw %"class.logging::CheckOpResult", ptr %3, i32 0, i32 0
  %5 = load ptr, ptr %4, align 8, !tbaa !28
  ret ptr %5
}

; Function Attrs: mustprogress nounwind uwtable
define linkonce_odr noundef zeroext i1 @_ZNK7logging13CheckOpResultcvbEv(ptr noundef nonnull align 8 dereferenceable(8) %0) #0 comdat align 2 {
  %2 = alloca ptr, align 8
  store ptr %0, ptr %2, align 8, !tbaa !24
  %3 = load ptr, ptr %2, align 8
  %4 = getelementptr inbounds nuw %"class.logging::CheckOpResult", ptr %3, i32 0, i32 0
  %5 = load ptr, ptr %4, align 8, !tbaa !28
  %6 = icmp ne ptr %5, null
  %7 = xor i1 %6, true
  ret i1 %7
}

; Function Attrs: mustprogress nounwind uwtable
define linkonce_odr void @_ZN7logging13CheckOpResultC2EPNSt7__cxx1112basic_stringIcSt11char_traitsIcESaIcEEE(ptr noundef nonnull align 8 dereferenceable(8) %0, ptr noundef %1) unnamed_addr #0 comdat align 2 {
  %3 = alloca ptr, align 8
  %4 = alloca ptr, align 8
  store ptr %0, ptr %3, align 8, !tbaa !24
  store ptr %1, ptr %4, align 8, !tbaa !26
  %5 = load ptr, ptr %3, align 8
  %6 = getelementptr inbounds nuw %"class.logging::CheckOpResult", ptr %5, i32 0, i32 0
  %7 = load ptr, ptr %4, align 8, !tbaa !26
  store ptr %7, ptr %6, align 8, !tbaa !28
  ret void
}

; Function Attrs: mustprogress nounwind uwtable
define linkonce_odr noundef zeroext i16 @_ZNSt14numeric_limitsItE3maxEv() #0 comdat align 2 {
  ret i16 -1
}

; Function Attrs: mustprogress uwtable
define noundef zeroext i1 @_ZN3net14QuicDataWriter13WriteUFloat16Em(ptr noundef nonnull align 8 dereferenceable(24) %0, i64 noundef %1) #1 align 2 personality ptr @__gxx_personality_v0 {
  %3 = alloca ptr, align 8
  %4 = alloca i64, align 8
  %5 = alloca i16, align 2
  %6 = alloca i16, align 2
  %7 = alloca i16, align 2
  %8 = alloca %"class.logging::CheckOpResult", align 8
  %9 = alloca %"class.logging::LogMessage", align 8
  %10 = alloca ptr, align 8
  %11 = alloca i32, align 4
  %12 = alloca %"class.logging::CheckOpResult", align 8
  %13 = alloca %"class.logging::LogMessage", align 8
  %14 = alloca %"class.logging::CheckOpResult", align 8
  %15 = alloca %"class.logging::LogMessage", align 8
  %16 = alloca %"class.logging::CheckOpResult", align 8
  %17 = alloca %"class.logging::LogMessage", align 8
  store ptr %0, ptr %3, align 8, !tbaa !3
  store i64 %1, ptr %4, align 8, !tbaa !8
  %18 = load ptr, ptr %3, align 8
  call void @llvm.lifetime.start.p0(i64 2, ptr %5) #7
  %19 = load i64, ptr %4, align 8, !tbaa !8
  %20 = icmp ult i64 %19, 4096
  br i1 %20, label %21, label %24

21:                                               ; preds = %2
  %22 = load i64, ptr %4, align 8, !tbaa !8
  %23 = trunc i64 %22 to i16
  store i16 %23, ptr %5, align 2, !tbaa !18
  br label %115

24:                                               ; preds = %2
  %25 = load i64, ptr %4, align 8, !tbaa !8
  %26 = icmp uge i64 %25, 4396972769280
  br i1 %26, label %27, label %29

27:                                               ; preds = %24
  %28 = call noundef zeroext i16 @_ZNSt14numeric_limitsItE3maxEv() #7
  store i16 %28, ptr %5, align 2, !tbaa !18
  br label %114

29:                                               ; preds = %24
  call void @llvm.lifetime.start.p0(i64 2, ptr %6) #7
  store i16 0, ptr %6, align 2, !tbaa !18
  call void @llvm.lifetime.start.p0(i64 2, ptr %7) #7
  store i16 16, ptr %7, align 2, !tbaa !18
  br label %30

30:                                               ; preds = %56, %29
  %31 = load i16, ptr %7, align 2, !tbaa !18
  %32 = zext i16 %31 to i32
  %33 = icmp sgt i32 %32, 0
  br i1 %33, label %35, label %34

34:                                               ; preds = %30
  call void @llvm.lifetime.end.p0(i64 2, ptr %7) #7
  br label %61

35:                                               ; preds = %30
  %36 = load i64, ptr %4, align 8, !tbaa !8
  %37 = load i16, ptr %7, align 2, !tbaa !18
  %38 = zext i16 %37 to i32
  %39 = add nsw i32 11, %38
  %40 = zext i32 %39 to i64
  %41 = shl i64 1, %40
  %42 = icmp uge i64 %36, %41
  br i1 %42, label %43, label %55

43:                                               ; preds = %35
  %44 = load i16, ptr %7, align 2, !tbaa !18
  %45 = zext i16 %44 to i32
  %46 = load i16, ptr %6, align 2, !tbaa !18
  %47 = zext i16 %46 to i32
  %48 = add nsw i32 %47, %45
  %49 = trunc i32 %48 to i16
  store i16 %49, ptr %6, align 2, !tbaa !18
  %50 = load i16, ptr %7, align 2, !tbaa !18
  %51 = zext i16 %50 to i32
  %52 = load i64, ptr %4, align 8, !tbaa !8
  %53 = zext i32 %51 to i64
  %54 = lshr i64 %52, %53
  store i64 %54, ptr %4, align 8, !tbaa !8
  br label %55

55:                                               ; preds = %43, %35
  br label %56

56:                                               ; preds = %55
  %57 = load i16, ptr %7, align 2, !tbaa !18
  %58 = zext i16 %57 to i32
  %59 = sdiv i32 %58, 2
  %60 = trunc i32 %59 to i16
  store i16 %60, ptr %7, align 2, !tbaa !18
  br label %30, !llvm.loop !22

61:                                               ; preds = %34
  call void @llvm.lifetime.start.p0(i64 8, ptr %8) #7
  call void @_ZN7logging13CheckOpResultC2EPNSt7__cxx1112basic_stringIcSt11char_traitsIcESaIcEEE(ptr noundef nonnull align 8 dereferenceable(8) %8, ptr noundef null)
  %62 = call noundef zeroext i1 @_ZNK7logging13CheckOpResultcvbEv(ptr noundef nonnull align 8 dereferenceable(8) %8)
  br i1 %62, label %63, label %64

63:                                               ; preds = %61
  br label %72

64:                                               ; preds = %61
  call void @llvm.lifetime.start.p0(i64 408, ptr %9) #7
  %65 = call noundef ptr @_ZN7logging13CheckOpResult7messageB5cxx11Ev(ptr noundef nonnull align 8 dereferenceable(8) %8)
  call void @_ZN7logging10LogMessageC1EPKciiPNSt7__cxx1112basic_stringIcSt11char_traitsIcESaIcEEE(ptr noundef nonnull align 8 dereferenceable(404) %9, ptr noundef @.str, i32 noundef 72, i32 noundef 0, ptr noundef %65)
  %66 = invoke noundef nonnull align 8 dereferenceable(8) ptr @_ZN7logging10LogMessage6streamEv(ptr noundef nonnull align 8 dereferenceable(404) %9)
          to label %67 unwind label %68

67:                                               ; preds = %64
  call void @_ZN7logging10LogMessageD1Ev(ptr noundef nonnull align 8 dereferenceable(404) %9) #7
  call void @llvm.lifetime.end.p0(i64 408, ptr %9) #7
  br label %72

68:                                               ; preds = %64
  %69 = landingpad { ptr, i32 }
          cleanup
  %70 = extractvalue { ptr, i32 } %69, 0
  store ptr %70, ptr %10, align 8
  %71 = extractvalue { ptr, i32 } %69, 1
  store i32 %71, ptr %11, align 4
  call void @_ZN7logging10LogMessageD1Ev(ptr noundef nonnull align 8 dereferenceable(404) %9) #7
  call void @llvm.lifetime.end.p0(i64 408, ptr %9) #7
  call void @llvm.lifetime.end.p0(i64 8, ptr %8) #7
  br label %113

72:                                               ; preds = %67, %63
  call void @llvm.lifetime.end.p0(i64 8, ptr %8) #7
  call void @llvm.lifetime.start.p0(i64 8, ptr %12) #7
  call void @_ZN7logging13CheckOpResultC2EPNSt7__cxx1112basic_stringIcSt11char_traitsIcESaIcEEE(ptr noundef nonnull align 8 dereferenceable(8) %12, ptr noundef null)
  %73 = call noundef zeroext i1 @_ZNK7logging13CheckOpResultcvbEv(ptr noundef nonnull align 8 dereferenceable(8) %12)
  br i1 %73, label %74, label %75

74:                                               ; preds = %72
  br label %83

75:                                               ; preds = %72
  call void @llvm.lifetime.start.p0(i64 408, ptr %13) #7
  %76 = call noundef ptr @_ZN7logging13CheckOpResult7messageB5cxx11Ev(ptr noundef nonnull align 8 dereferenceable(8) %12)
  call void @_ZN7logging10LogMessageC1EPKciiPNSt7__cxx1112basic_stringIcSt11char_traitsIcESaIcEEE(ptr noundef nonnull align 8 dereferenceable(404) %13, ptr noundef @.str, i32 noundef 73, i32 noundef 0, ptr noundef %76)
  %77 = invoke noundef nonnull align 8 dereferenceable(8) ptr @_ZN7logging10LogMessage6streamEv(ptr noundef nonnull align 8 dereferenceable(404) %13)
          to label %78 unwind label %79

78:                                               ; preds = %75
  call void @_ZN7logging10LogMessageD1Ev(ptr noundef nonnull align 8 dereferenceable(404) %13) #7
  call void @llvm.lifetime.end.p0(i64 408, ptr %13) #7
  br label %83

79:                                               ; preds = %75
  %80 = landingpad { ptr, i32 }
          cleanup
  %81 = extractvalue { ptr, i32 } %80, 0
  store ptr %81, ptr %10, align 8
  %82 = extractvalue { ptr, i32 } %80, 1
  store i32 %82, ptr %11, align 4
  call void @_ZN7logging10LogMessageD1Ev(ptr noundef nonnull align 8 dereferenceable(404) %13) #7
  call void @llvm.lifetime.end.p0(i64 408, ptr %13) #7
  call void @llvm.lifetime.end.p0(i64 8, ptr %12) #7
  br label %113

83:                                               ; preds = %78, %74
  call void @llvm.lifetime.end.p0(i64 8, ptr %12) #7
  call void @llvm.lifetime.start.p0(i64 8, ptr %14) #7
  call void @_ZN7logging13CheckOpResultC2EPNSt7__cxx1112basic_stringIcSt11char_traitsIcESaIcEEE(ptr noundef nonnull align 8 dereferenceable(8) %14, ptr noundef null)
  %84 = call noundef zeroext i1 @_ZNK7logging13CheckOpResultcvbEv(ptr noundef nonnull align 8 dereferenceable(8) %14)
  br i1 %84, label %85, label %86

85:                                               ; preds = %83
  br label %94

86:                                               ; preds = %83
  call void @llvm.lifetime.start.p0(i64 408, ptr %15) #7
  %87 = call noundef ptr @_ZN7logging13CheckOpResult7messageB5cxx11Ev(ptr noundef nonnull align 8 dereferenceable(8) %14)
  call void @_ZN7logging10LogMessageC1EPKciiPNSt7__cxx1112basic_stringIcSt11char_traitsIcESaIcEEE(ptr noundef nonnull align 8 dereferenceable(404) %15, ptr noundef @.str, i32 noundef 74, i32 noundef 0, ptr noundef %87)
  %88 = invoke noundef nonnull align 8 dereferenceable(8) ptr @_ZN7logging10LogMessage6streamEv(ptr noundef nonnull align 8 dereferenceable(404) %15)
          to label %89 unwind label %90

89:                                               ; preds = %86
  call void @_ZN7logging10LogMessageD1Ev(ptr noundef nonnull align 8 dereferenceable(404) %15) #7
  call void @llvm.lifetime.end.p0(i64 408, ptr %15) #7
  br label %94

90:                                               ; preds = %86
  %91 = landingpad { ptr, i32 }
          cleanup
  %92 = extractvalue { ptr, i32 } %91, 0
  store ptr %92, ptr %10, align 8
  %93 = extractvalue { ptr, i32 } %91, 1
  store i32 %93, ptr %11, align 4
  call void @_ZN7logging10LogMessageD1Ev(ptr noundef nonnull align 8 dereferenceable(404) %15) #7
  call void @llvm.lifetime.end.p0(i64 408, ptr %15) #7
  call void @llvm.lifetime.end.p0(i64 8, ptr %14) #7
  br label %113

94:                                               ; preds = %89, %85
  call void @llvm.lifetime.end.p0(i64 8, ptr %14) #7
  call void @llvm.lifetime.start.p0(i64 8, ptr %16) #7
  call void @_ZN7logging13CheckOpResultC2EPNSt7__cxx1112basic_stringIcSt11char_traitsIcESaIcEEE(ptr noundef nonnull align 8 dereferenceable(8) %16, ptr noundef null)
  %95 = call noundef zeroext i1 @_ZNK7logging13CheckOpResultcvbEv(ptr noundef nonnull align 8 dereferenceable(8) %16)
  br i1 %95, label %96, label %97

96:                                               ; preds = %94
  br label %105

97:                                               ; preds = %94
  call void @llvm.lifetime.start.p0(i64 408, ptr %17) #7
  %98 = call noundef ptr @_ZN7logging13CheckOpResult7messageB5cxx11Ev(ptr noundef nonnull align 8 dereferenceable(8) %16)
  call void @_ZN7logging10LogMessageC1EPKciiPNSt7__cxx1112basic_stringIcSt11char_traitsIcESaIcEEE(ptr noundef nonnull align 8 dereferenceable(404) %17, ptr noundef @.str, i32 noundef 75, i32 noundef 0, ptr noundef %98)
  %99 = invoke noundef nonnull align 8 dereferenceable(8) ptr @_ZN7logging10LogMessage6streamEv(ptr noundef nonnull align 8 dereferenceable(404) %17)
          to label %100 unwind label %101

100:                                              ; preds = %97
  call void @_ZN7logging10LogMessageD1Ev(ptr noundef nonnull align 8 dereferenceable(404) %17) #7
  call void @llvm.lifetime.end.p0(i64 408, ptr %17) #7
  br label %105

101:                                              ; preds = %97
  %102 = landingpad { ptr, i32 }
          cleanup
  %103 = extractvalue { ptr, i32 } %102, 0
  store ptr %103, ptr %10, align 8
  %104 = extractvalue { ptr, i32 } %102, 1
  store i32 %104, ptr %11, align 4
  call void @_ZN7logging10LogMessageD1Ev(ptr noundef nonnull align 8 dereferenceable(404) %17) #7
  call void @llvm.lifetime.end.p0(i64 408, ptr %17) #7
  call void @llvm.lifetime.end.p0(i64 8, ptr %16) #7
  br label %113

105:                                              ; preds = %100, %96
  call void @llvm.lifetime.end.p0(i64 8, ptr %16) #7
  %106 = load i64, ptr %4, align 8, !tbaa !8
  %107 = load i16, ptr %6, align 2, !tbaa !18
  %108 = zext i16 %107 to i32
  %109 = shl i32 %108, 11
  %110 = sext i32 %109 to i64
  %111 = add i64 %106, %110
  %112 = trunc i64 %111 to i16
  store i16 %112, ptr %5, align 2, !tbaa !18
  call void @llvm.lifetime.end.p0(i64 2, ptr %6) #7
  br label %114

113:                                              ; preds = %101, %90, %79, %68
  call void @llvm.lifetime.end.p0(i64 2, ptr %6) #7
  call void @llvm.lifetime.end.p0(i64 2, ptr %5) #7
  br label %117

114:                                              ; preds = %105, %27
  br label %115

115:                                              ; preds = %114, %21
  %116 = call noundef zeroext i1 @_ZN3net14QuicDataWriter10WriteBytesEPKvm(ptr noundef nonnull align 8 dereferenceable(24) %18, ptr noundef %5, i64 noundef 2)
  call void @llvm.lifetime.end.p0(i64 2, ptr %5) #7
  ret i1 %116

117:                                              ; preds = %113
  %118 = load ptr, ptr %10, align 8
  %119 = load i32, ptr %11, align 4
  %120 = insertvalue { ptr, i32 } poison, ptr %118, 0
  %121 = insertvalue { ptr, i32 } %120, i32 %119, 1
  resume { ptr, i32 } %121
}