; Function Attrs: mustprogress nofree norecurse nosync nounwind memory(write, argmem: readwrite, inaccessiblemem: none) uwtable
define noundef zeroext i1 @_ZN3net14QuicDataWriter13WriteUFloat16Em(ptr noundef nonnull align 8 captures(none) dereferenceable(24) %0, i64 noundef %1) local_unnamed_addr #5 align 2 personality ptr @__gxx_personality_v0 {
  %3 = icmp ult i64 %1, 4096
  br i1 %3, label %4, label %6

4:                                                ; preds = %2
  %5 = trunc nuw nsw i64 %1 to i16
  br label %20

6:                                                ; preds = %2
  %7 = icmp ugt i64 %1, 4396972769279
  br i1 %7, label %20, label %.preheader

.preheader:                                       ; preds = %6, %.preheader
  %.034 = phi i32 [ %14, %.preheader ], [ 16, %6 ]
  %.01333 = phi i16 [ %.1, %.preheader ], [ 0, %6 ]
  %.01432 = phi i64 [ %.115, %.preheader ], [ %1, %6 ]
  %8 = add nuw nsw i32 %.034, 11
  %9 = zext nneg i32 %8 to i64
  %.014.highbits = lshr i64 %.01432, %9
  %.not19 = icmp eq i64 %.014.highbits, 0
  %10 = trunc nuw nsw i32 %.034 to i16
  %11 = zext nneg i32 %.034 to i64
  %12 = select i1 %.not19, i64 0, i64 %11
  %.115 = lshr i64 %.01432, %12
  %13 = select i1 %.not19, i16 0, i16 %10
  %.1 = add i16 %13, %.01333
  %14 = lshr i32 %.034, 1
  %.not = icmp samesign ult i32 %.034, 2
  br i1 %.not, label %15, label %.preheader, !llvm.loop !12

15:                                               ; preds = %.preheader
  %16 = zext i16 %.1 to i64
  %17 = shl nuw nsw i64 %16, 11
  %18 = add nuw nsw i64 %17, %.115
  %19 = trunc i64 %18 to i16
  br label %20

20:                                               ; preds = %6, %15, %4
  %.031 = phi i16 [ %5, %4 ], [ %19, %15 ], [ -1, %6 ]
  %21 = getelementptr inbounds nuw i8, ptr %0, i64 16
  %22 = load i64, ptr %21, align 8, !tbaa !11
  %23 = getelementptr inbounds nuw i8, ptr %0, i64 8
  %24 = load i64, ptr %23, align 8, !tbaa !10
  %25 = icmp ugt i64 %22, %24
  %26 = sub nuw i64 %24, %22
  %27 = icmp ult i64 %26, 2
  %or.cond.i.i = select i1 %25, i1 true, i1 %27
  %28 = load ptr, ptr %0, align 8
  %29 = getelementptr inbounds nuw i8, ptr %28, i64 %22
  %.0.i.i = select i1 %or.cond.i.i, ptr null, ptr %29
  %.not.i23 = icmp ne ptr %.0.i.i, null
  br i1 %.not.i23, label %30, label %_ZN3net14QuicDataWriter10WriteBytesEPKvm.exit

30:                                               ; preds = %20
  store i16 %.031, ptr %.0.i.i, align 1
  %31 = load i64, ptr %21, align 8, !tbaa !11
  %32 = add i64 %31, 2
  store i64 %32, ptr %21, align 8, !tbaa !11
  br label %_ZN3net14QuicDataWriter10WriteBytesEPKvm.exit

_ZN3net14QuicDataWriter10WriteBytesEPKvm.exit:    ; preds = %20, %30
  ret i1 %.not.i23
}